; Function Attrs: mustprogress nounwind uwtable
define void @_ZN3net22CryptoHandshakeMessage9MarkDirtyEv(ptr noundef nonnull align 8 captures(none) dereferenceable(72) %0) local_unnamed_addr #3 align 2 personality ptr @__gxx_personality_v0 {
  %2 = getelementptr inbounds nuw i8, ptr %0, i64 64
  %3 = load ptr, ptr %2, align 8, !tbaa !42
  store ptr null, ptr %2, align 8, !tbaa !42
  %.not.i.i = icmp eq ptr %3, null
  br i1 %.not.i.i, label %_ZNSt10unique_ptrIN3net8QuicDataESt14default_deleteIS1_EE5resetEPS1_.exit, label %_ZNKSt14default_deleteIN3net8QuicDataEEclEPS1_.exit.i.i

_ZNKSt14default_deleteIN3net8QuicDataEEclEPS1_.exit.i.i: ; preds = %1
  %4 = load ptr, ptr %3, align 8, !tbaa !43
  %5 = getelementptr inbounds nuw i8, ptr %4, i64 8
  %6 = load ptr, ptr %5, align 8
  tail call void %6(ptr noundef nonnull align 8 dereferenceable(25) %3) #22
  br label %_ZNSt10unique_ptrIN3net8QuicDataESt14default_deleteIS1_EE5resetEPS1_.exit

_ZNSt10unique_ptrIN3net8QuicDataESt14default_deleteIS1_EE5resetEPS1_.exit: ; preds = %1, %_ZNKSt14default_deleteIN3net8QuicDataEEclEPS1_.exit.i.i
  ret void
}